target datalayout = "e-m:e-p270:32:32-p271:32:32-p272:64:64-i64:64-i128:128-f80:128-n8:16:32:64-S128"
target triple = "x86_64-pc-linux-gnu"

%struct.mi_page_queue_s = type { ptr, ptr, i64 }
%struct.mi_page_s = type { i8, i8, i16, i16, %union.mi_page_flags_s, i8, ptr, ptr, i16, i8, i8, i64, ptr, i64, i64, ptr, ptr }
%union.mi_page_flags_s = type { i8 }
%struct.mi_segment_s = type { %struct.mi_memid_s, i8, i8, i64, ptr, ptr, ptr, i8, i8, i64, i64, i64, i64, i64, i64, ptr, ptr, i64, i64, i32, [1 x %struct.mi_page_s] }
%struct.mi_memid_s = type { %union.anon, i8, i8, i8, i32 }
%union.anon = type { %struct.mi_memid_os_info }
%struct.mi_memid_os_info = type { ptr, i64 }
%struct.mi_segments_tld_s = type { %struct.mi_segment_queue_s, %struct.mi_segment_queue_s, %struct.mi_page_queue_s, i64, i64, i64, i64, i64, ptr, ptr }
%struct.mi_segment_queue_s = type { ptr, ptr }
%struct.mi_stats_s = type { %struct.mi_stat_count_s, %struct.mi_stat_count_s, %struct.mi_stat_count_s, %struct.mi_stat_count_s, %struct.mi_stat_count_s, %struct.mi_stat_count_s, %struct.mi_stat_count_s, %struct.mi_stat_count_s, %struct.mi_stat_count_s, %struct.mi_stat_count_s, %struct.mi_stat_count_s, %struct.mi_stat_count_s, %struct.mi_stat_count_s, %struct.mi_stat_count_s, %struct.mi_stat_count_s, %struct.mi_stat_counter_s, %struct.mi_stat_counter_s, %struct.mi_stat_counter_s, %struct.mi_stat_counter_s, %struct.mi_stat_counter_s, %struct.mi_stat_counter_s, %struct.mi_stat_counter_s, %struct.mi_stat_counter_s, %struct.mi_stat_counter_s, %struct.mi_stat_counter_s, %struct.mi_stat_counter_s, %struct.mi_stat_counter_s, %struct.mi_stat_counter_s }
%struct.mi_stat_count_s = type { i64, i64, i64, i64 }
%struct.mi_stat_counter_s = type { i64, i64 }

; Function Attrs: nounwind uwtable
define internal i64 @mi_segment_raw_page_size(ptr noundef %0) #0 {
  %2 = alloca ptr, align 8
  store ptr %0, ptr %2, align 8, !tbaa !3
  %3 = load ptr, ptr %2, align 8, !tbaa !3
  %4 = getelementptr inbounds nuw %struct.mi_segment_s, ptr %3, i32 0, i32 19
  %5 = load i32, ptr %4, align 8, !tbaa !44
  %6 = icmp eq i32 %5, 3
  br i1 %6, label %7, label %11

7:                                                ; preds = %1
  %8 = load ptr, ptr %2, align 8, !tbaa !3
  %9 = getelementptr inbounds nuw %struct.mi_segment_s, ptr %8, i32 0, i32 3
  %10 = load i64, ptr %9, align 8, !tbaa !57
  br label %16

11:                                               ; preds = %1
  %12 = load ptr, ptr %2, align 8, !tbaa !3
  %13 = getelementptr inbounds nuw %struct.mi_segment_s, ptr %12, i32 0, i32 18
  %14 = load i64, ptr %13, align 8, !tbaa !94
  %15 = shl i64 1, %14
  br label %16

16:                                               ; preds = %11, %7
  %17 = phi i64 [ %10, %7 ], [ %15, %11 ]
  ret i64 %17
}

; Function Attrs: nounwind uwtable
define internal void @mi_page_set_expire(ptr noundef %0, i32 noundef %1) #0 {
  %3 = alloca ptr, align 8
  %4 = alloca i32, align 4
  store ptr %0, ptr %3, align 8, !tbaa !8
  store i32 %1, ptr %4, align 4, !tbaa !83
  %5 = load i32, ptr %4, align 4, !tbaa !83
  %6 = zext i32 %5 to i64
  %7 = inttoptr i64 %6 to ptr
  %8 = load ptr, ptr %3, align 8, !tbaa !8
  %9 = getelementptr inbounds nuw %struct.mi_page_s, ptr %8, i32 0, i32 6
  store ptr %7, ptr %9, align 8, !tbaa !96
  ret void
}

; Function Attrs: nounwind uwtable
define internal ptr @mi_segment_raw_page_start(ptr noundef %0, ptr noundef %1, ptr noundef %2) #0 {
  %4 = alloca ptr, align 8
  %5 = alloca ptr, align 8
  %6 = alloca ptr, align 8
  %7 = alloca i64, align 8
  %8 = alloca ptr, align 8
  store ptr %0, ptr %4, align 8, !tbaa !3
  store ptr %1, ptr %5, align 8, !tbaa !8
  store ptr %2, ptr %6, align 8, !tbaa !10
  call void @llvm.lifetime.start.p0(i64 8, ptr %7) #7
  %9 = load ptr, ptr %4, align 8, !tbaa !3
  %10 = call i64 @mi_segment_raw_page_size(ptr noundef %9) #8
  store i64 %10, ptr %7, align 8, !tbaa !14
  call void @llvm.lifetime.start.p0(i64 8, ptr %8) #7
  %11 = load ptr, ptr %4, align 8, !tbaa !3
  %12 = load ptr, ptr %5, align 8, !tbaa !8
  %13 = getelementptr inbounds nuw %struct.mi_page_s, ptr %12, i32 0, i32 0
  %14 = load i8, ptr %13, align 8, !tbaa !16
  %15 = zext i8 %14 to i64
  %16 = load i64, ptr %7, align 8, !tbaa !14
  %17 = mul i64 %15, %16
  %18 = getelementptr inbounds nuw i8, ptr %11, i64 %17
  store ptr %18, ptr %8, align 8, !tbaa !12
  %19 = load ptr, ptr %5, align 8, !tbaa !8
  %20 = getelementptr inbounds nuw %struct.mi_page_s, ptr %19, i32 0, i32 0
  %21 = load i8, ptr %20, align 8, !tbaa !16
  %22 = zext i8 %21 to i32
  %23 = icmp eq i32 %22, 0
  br i1 %23, label %24, label %35

24:                                               ; preds = %3
  %25 = load ptr, ptr %4, align 8, !tbaa !3
  %26 = getelementptr inbounds nuw %struct.mi_segment_s, ptr %25, i32 0, i32 13
  %27 = load i64, ptr %26, align 8, !tbaa !20
  %28 = load ptr, ptr %8, align 8, !tbaa !12
  %29 = getelementptr inbounds nuw i8, ptr %28, i64 %27
  store ptr %29, ptr %8, align 8, !tbaa !12
  %30 = load ptr, ptr %4, align 8, !tbaa !3
  %31 = getelementptr inbounds nuw %struct.mi_segment_s, ptr %30, i32 0, i32 13
  %32 = load i64, ptr %31, align 8, !tbaa !20
  %33 = load i64, ptr %7, align 8, !tbaa !14
  %34 = sub i64 %33, %32
  store i64 %34, ptr %7, align 8, !tbaa !14
  br label %35

35:                                               ; preds = %24, %3
  %36 = load ptr, ptr %6, align 8, !tbaa !10
  %37 = icmp ne ptr %36, null
  br i1 %37, label %38, label %41

38:                                               ; preds = %35
  %39 = load i64, ptr %7, align 8, !tbaa !14
  %40 = load ptr, ptr %6, align 8, !tbaa !10
  store i64 %39, ptr %40, align 8, !tbaa !14
  br label %41

41:                                               ; preds = %38, %35
  %42 = load ptr, ptr %8, align 8, !tbaa !12
  call void @llvm.lifetime.end.p0(i64 8, ptr %8) #7
  call void @llvm.lifetime.end.p0(i64 8, ptr %7) #7
  ret ptr %42
}

; Function Attrs: nounwind uwtable
define internal void @mi_page_purge_set_expire(ptr noundef %0) #0 {
  %2 = alloca ptr, align 8
  %3 = alloca i32, align 4
  store ptr %0, ptr %2, align 8, !tbaa !8
  call void @llvm.lifetime.start.p0(i64 4, ptr %3) #7
  %4 = call i64 @_mi_clock_now() #8
  %5 = trunc i64 %4 to i32
  %6 = zext i32 %5 to i64
  %7 = call i64 @mi_option_get(i32 noundef 15) #8
  %8 = add nsw i64 %6, %7
  %9 = trunc i64 %8 to i32
  store i32 %9, ptr %3, align 4, !tbaa !83
  %10 = load ptr, ptr %2, align 8, !tbaa !8
  %11 = load i32, ptr %3, align 4, !tbaa !83
  call void @mi_page_set_expire(ptr noundef %10, i32 noundef %11) #8
  call void @llvm.lifetime.end.p0(i64 4, ptr %3) #7
  ret void
}

; Function Attrs: nounwind uwtable
define internal void @mi_page_purge(ptr noundef %0, ptr noundef %1, ptr noundef %2) #0 {
  %4 = alloca ptr, align 8
  %5 = alloca ptr, align 8
  %6 = alloca ptr, align 8
  %7 = alloca i64, align 8
  %8 = alloca ptr, align 8
  %9 = alloca i8, align 1
  store ptr %0, ptr %4, align 8, !tbaa !3
  store ptr %1, ptr %5, align 8, !tbaa !8
  store ptr %2, ptr %6, align 8, !tbaa !28
  %10 = load ptr, ptr %4, align 8, !tbaa !3
  %11 = getelementptr inbounds nuw %struct.mi_segment_s, ptr %10, i32 0, i32 2
  %12 = load i8, ptr %11, align 1, !tbaa !95, !range !30, !noundef !31
  %13 = trunc i8 %12 to i1
  br i1 %13, label %15, label %14

14:                                               ; preds = %3
  br label %32

15:                                               ; preds = %3
  call void @llvm.lifetime.start.p0(i64 8, ptr %7) #7
  call void @llvm.lifetime.start.p0(i64 8, ptr %8) #7
  %16 = load ptr, ptr %4, align 8, !tbaa !3
  %17 = load ptr, ptr %5, align 8, !tbaa !8
  %18 = call ptr @mi_segment_raw_page_start(ptr noundef %16, ptr noundef %17, ptr noundef %7) #8
  store ptr %18, ptr %8, align 8, !tbaa !90
  call void @llvm.lifetime.start.p0(i64 1, ptr %9) #7
  %19 = load ptr, ptr %8, align 8, !tbaa !90
  %20 = load i64, ptr %7, align 8, !tbaa !14
  %21 = call zeroext i1 @_mi_os_purge(ptr noundef %19, i64 noundef %20) #8
  %22 = zext i1 %21 to i8
  store i8 %22, ptr %9, align 1, !tbaa !27
  %23 = load i8, ptr %9, align 1, !tbaa !27, !range !30, !noundef !31
  %24 = trunc i8 %23 to i1
  br i1 %24, label %25, label %31

25:                                               ; preds = %15
  %26 = load ptr, ptr %5, align 8, !tbaa !8
  %27 = getelementptr inbounds nuw %struct.mi_page_s, ptr %26, i32 0, i32 1
  %28 = load i8, ptr %27, align 1
  %29 = and i8 %28, -3
  %30 = or i8 %29, 0
  store i8 %30, ptr %27, align 1
  br label %31

31:                                               ; preds = %25, %15
  call void @llvm.lifetime.end.p0(i64 1, ptr %9) #7
  call void @llvm.lifetime.end.p0(i64 8, ptr %8) #7
  call void @llvm.lifetime.end.p0(i64 8, ptr %7) #7
  br label %32

32:                                               ; preds = %31, %14
  ret void
}

; Function Attrs: nounwind uwtable
define internal void @mi_segment_schedule_purge(ptr noundef %0, ptr noundef %1, ptr noundef %2) #0 {
  %4 = alloca ptr, align 8
  %5 = alloca ptr, align 8
  %6 = alloca ptr, align 8
  %7 = alloca ptr, align 8
  store ptr %0, ptr %4, align 8, !tbaa !3
  store ptr %1, ptr %5, align 8, !tbaa !8
  store ptr %2, ptr %6, align 8, !tbaa !28
  %8 = load ptr, ptr %4, align 8, !tbaa !3
  %9 = getelementptr inbounds nuw %struct.mi_segment_s, ptr %8, i32 0, i32 2
  %10 = load i8, ptr %9, align 1, !tbaa !95, !range !30, !noundef !31
  %11 = trunc i8 %10 to i1
  br i1 %11, label %13, label %12

12:                                               ; preds = %3
  br label %55

13:                                               ; preds = %3
  %14 = call i64 @mi_option_get(i32 noundef 15) #8
  %15 = icmp eq i64 %14, 0
  br i1 %15, label %16, label %20

16:                                               ; preds = %13
  %17 = load ptr, ptr %4, align 8, !tbaa !3
  %18 = load ptr, ptr %5, align 8, !tbaa !8
  %19 = load ptr, ptr %6, align 8, !tbaa !28
  call void @mi_page_purge(ptr noundef %17, ptr noundef %18, ptr noundef %19) #8
  br label %55

20:                                               ; preds = %13
  %21 = call i64 @mi_option_get(i32 noundef 15) #8
  %22 = icmp sgt i64 %21, 0
  br i1 %22, label %23, label %54

23:                                               ; preds = %20
  call void @llvm.lifetime.start.p0(i64 8, ptr %7) #7
  %24 = load ptr, ptr %6, align 8, !tbaa !28
  %25 = getelementptr inbounds nuw %struct.mi_segments_tld_s, ptr %24, i32 0, i32 2
  store ptr %25, ptr %7, align 8, !tbaa !32
  %26 = load ptr, ptr %5, align 8, !tbaa !8
  call void @mi_page_purge_set_expire(ptr noundef %26) #8
  %27 = load ptr, ptr %7, align 8, !tbaa !32
  %28 = getelementptr inbounds nuw %struct.mi_page_queue_s, ptr %27, i32 0, i32 0
  %29 = load ptr, ptr %28, align 8, !tbaa !40
  %30 = load ptr, ptr %5, align 8, !tbaa !8
  %31 = getelementptr inbounds nuw %struct.mi_page_s, ptr %30, i32 0, i32 15
  store ptr %29, ptr %31, align 8, !tbaa !39
  %32 = load ptr, ptr %5, align 8, !tbaa !8
  %33 = getelementptr inbounds nuw %struct.mi_page_s, ptr %32, i32 0, i32 16
  store ptr null, ptr %33, align 8, !tbaa !36
  %34 = load ptr, ptr %7, align 8, !tbaa !32
  %35 = getelementptr inbounds nuw %struct.mi_page_queue_s, ptr %34, i32 0, i32 0
  %36 = load ptr, ptr %35, align 8, !tbaa !40
  %37 = icmp eq ptr %36, null
  br i1 %37, label %38, label %44

38:                                               ; preds = %23
  %39 = load ptr, ptr %5, align 8, !tbaa !8
  %40 = load ptr, ptr %7, align 8, !tbaa !32
  %41 = getelementptr inbounds nuw %struct.mi_page_queue_s, ptr %40, i32 0, i32 1
  store ptr %39, ptr %41, align 8, !tbaa !34
  %42 = load ptr, ptr %7, align 8, !tbaa !32
  %43 = getelementptr inbounds nuw %struct.mi_page_queue_s, ptr %42, i32 0, i32 0
  store ptr %39, ptr %43, align 8, !tbaa !40
  br label %53

44:                                               ; preds = %23
  %45 = load ptr, ptr %5, align 8, !tbaa !8
  %46 = load ptr, ptr %7, align 8, !tbaa !32
  %47 = getelementptr inbounds nuw %struct.mi_page_queue_s, ptr %46, i32 0, i32 0
  %48 = load ptr, ptr %47, align 8, !tbaa !40
  %49 = getelementptr inbounds nuw %struct.mi_page_s, ptr %48, i32 0, i32 16
  store ptr %45, ptr %49, align 8, !tbaa !36
  %50 = load ptr, ptr %5, align 8, !tbaa !8
  %51 = load ptr, ptr %7, align 8, !tbaa !32
  %52 = getelementptr inbounds nuw %struct.mi_page_queue_s, ptr %51, i32 0, i32 0
  store ptr %50, ptr %52, align 8, !tbaa !40
  br label %53

53:                                               ; preds = %44, %38
  call void @llvm.lifetime.end.p0(i64 8, ptr %7) #7
  br label %54

54:                                               ; preds = %53, %20
  br label %55

55:                                               ; preds = %12, %54, %16
  ret void
}

; Function Attrs: inlinehint nounwind uwtable
define internal void @_mi_memzero(ptr noundef %0, i64 noundef %1) #2 {
  %3 = alloca ptr, align 8
  %4 = alloca i64, align 8
  store ptr %0, ptr %3, align 8, !tbaa !90
  store i64 %1, ptr %4, align 8, !tbaa !14
  %5 = load ptr, ptr %3, align 8, !tbaa !90
  %6 = load i64, ptr %4, align 8, !tbaa !14
  call void @llvm.memset.p0.i64(ptr align 1 %5, i8 0, i64 %6, i1 false)
  ret void
}

; Function Attrs: inlinehint nounwind uwtable
define internal i64 @mi_page_block_size(ptr noundef %0) #2 {
  %2 = alloca ptr, align 8
  store ptr %0, ptr %2, align 8, !tbaa !8
  %3 = load ptr, ptr %2, align 8, !tbaa !8
  %4 = getelementptr inbounds nuw %struct.mi_page_s, ptr %3, i32 0, i32 11
  %5 = load i64, ptr %4, align 8, !tbaa !26
  ret i64 %5
}

; Function Attrs: nounwind uwtable
define internal void @mi_segment_page_clear(ptr noundef %0, ptr noundef %1, ptr noundef %2) #0 {
  %4 = alloca ptr, align 8
  %5 = alloca ptr, align 8
  %6 = alloca ptr, align 8
  %7 = alloca i64, align 8
  %8 = alloca i64, align 8
  %9 = alloca i8, align 1
  %10 = alloca i8, align 1
  %11 = alloca ptr, align 8
  %12 = alloca i16, align 2
  %13 = alloca i16, align 2
  %14 = alloca i64, align 8
  store ptr %0, ptr %4, align 8, !tbaa !3
  store ptr %1, ptr %5, align 8, !tbaa !8
  store ptr %2, ptr %6, align 8, !tbaa !28
  call void @llvm.lifetime.start.p0(i64 8, ptr %7) #7
  %15 = load ptr, ptr %5, align 8, !tbaa !8
  %16 = getelementptr inbounds nuw %struct.mi_page_s, ptr %15, i32 0, i32 2
  %17 = load i16, ptr %16, align 2, !tbaa !45
  %18 = zext i16 %17 to i64
  %19 = load ptr, ptr %5, align 8, !tbaa !8
  %20 = call i64 @mi_page_block_size(ptr noundef %19) #8
  %21 = mul i64 %18, %20
  store i64 %21, ptr %7, align 8, !tbaa !14
  %22 = load ptr, ptr %6, align 8, !tbaa !28
  %23 = getelementptr inbounds nuw %struct.mi_segments_tld_s, ptr %22, i32 0, i32 9
  %24 = load ptr, ptr %23, align 8, !tbaa !46
  %25 = getelementptr inbounds nuw %struct.mi_stats_s, ptr %24, i32 0, i32 6
  %26 = load i64, ptr %7, align 8, !tbaa !14
  call void @_mi_stat_decrease(ptr noundef %25, i64 noundef %26) #8
  %27 = load ptr, ptr %6, align 8, !tbaa !28
  %28 = getelementptr inbounds nuw %struct.mi_segments_tld_s, ptr %27, i32 0, i32 9
  %29 = load ptr, ptr %28, align 8, !tbaa !46
  %30 = getelementptr inbounds nuw %struct.mi_stats_s, ptr %29, i32 0, i32 1
  call void @_mi_stat_decrease(ptr noundef %30, i64 noundef 1) #8
  %31 = load ptr, ptr %5, align 8, !tbaa !8
  %32 = getelementptr inbounds nuw %struct.mi_page_s, ptr %31, i32 0, i32 1
  %33 = load i8, ptr %32, align 1
  %34 = and i8 %33, -5
  %35 = or i8 %34, 0
  store i8 %35, ptr %32, align 1
  %36 = load ptr, ptr %5, align 8, !tbaa !8
  %37 = getelementptr inbounds nuw %struct.mi_page_s, ptr %36, i32 0, i32 1
  %38 = load i8, ptr %37, align 1
  %39 = and i8 %38, -2
  %40 = or i8 %39, 0
  store i8 %40, ptr %37, align 1
  call void @llvm.lifetime.start.p0(i64 8, ptr %8) #7
  %41 = load ptr, ptr %5, align 8, !tbaa !8
  %42 = getelementptr inbounds nuw %struct.mi_page_s, ptr %41, i32 0, i32 11
  %43 = load i64, ptr %42, align 8, !tbaa !26
  store i64 %43, ptr %8, align 8, !tbaa !14
  call void @llvm.lifetime.start.p0(i64 1, ptr %9) #7
  %44 = load ptr, ptr %5, align 8, !tbaa !8
  %45 = getelementptr inbounds nuw %struct.mi_page_s, ptr %44, i32 0, i32 9
  %46 = load i8, ptr %45, align 2, !tbaa !50
  store i8 %46, ptr %9, align 1, !tbaa !51
  call void @llvm.lifetime.start.p0(i64 1, ptr %10) #7
  %47 = load ptr, ptr %5, align 8, !tbaa !8
  %48 = getelementptr inbounds nuw %struct.mi_page_s, ptr %47, i32 0, i32 10
  %49 = load i8, ptr %48, align 1, !tbaa !52
  store i8 %49, ptr %10, align 1, !tbaa !51
  call void @llvm.lifetime.start.p0(i64 8, ptr %11) #7
  %50 = load ptr, ptr %5, align 8, !tbaa !8
  %51 = getelementptr inbounds nuw %struct.mi_page_s, ptr %50, i32 0, i32 12
  %52 = load ptr, ptr %51, align 8, !tbaa !53
  store ptr %52, ptr %11, align 8, !tbaa !12
  call void @llvm.lifetime.start.p0(i64 2, ptr %12) #7
  %53 = load ptr, ptr %5, align 8, !tbaa !8
  %54 = getelementptr inbounds nuw %struct.mi_page_s, ptr %53, i32 0, i32 2
  %55 = load i16, ptr %54, align 2, !tbaa !45
  store i16 %55, ptr %12, align 2, !tbaa !54
  call void @llvm.lifetime.start.p0(i64 2, ptr %13) #7
  %56 = load ptr, ptr %5, align 8, !tbaa !8
  %57 = getelementptr inbounds nuw %struct.mi_page_s, ptr %56, i32 0, i32 3
  %58 = load i16, ptr %57, align 4, !tbaa !55
  store i16 %58, ptr %13, align 2, !tbaa !54
  call void @llvm.lifetime.start.p0(i64 8, ptr %14) #7
  store i64 2, ptr %14, align 8, !tbaa !14
  %59 = load ptr, ptr %5, align 8, !tbaa !8
  %60 = load i64, ptr %14, align 8, !tbaa !14
  %61 = getelementptr inbounds i8, ptr %59, i64 %60
  %62 = load i64, ptr %14, align 8, !tbaa !14
  %63 = sub i64 80, %62
  call void @_mi_memzero(ptr noundef %61, i64 noundef %63) #8
  %64 = load i16, ptr %12, align 2, !tbaa !54
  %65 = load ptr, ptr %5, align 8, !tbaa !8
  %66 = getelementptr inbounds nuw %struct.mi_page_s, ptr %65, i32 0, i32 2
  store i16 %64, ptr %66, align 2, !tbaa !45
  %67 = load i16, ptr %13, align 2, !tbaa !54
  %68 = load ptr, ptr %5, align 8, !tbaa !8
  %69 = getelementptr inbounds nuw %struct.mi_page_s, ptr %68, i32 0, i32 3
  store i16 %67, ptr %69, align 4, !tbaa !55
  %70 = load i64, ptr %8, align 8, !tbaa !14
  %71 = load ptr, ptr %5, align 8, !tbaa !8
  %72 = getelementptr inbounds nuw %struct.mi_page_s, ptr %71, i32 0, i32 11
  store i64 %70, ptr %72, align 8, !tbaa !26
  %73 = load i8, ptr %9, align 1, !tbaa !51
  %74 = load ptr, ptr %5, align 8, !tbaa !8
  %75 = getelementptr inbounds nuw %struct.mi_page_s, ptr %74, i32 0, i32 9
  store i8 %73, ptr %75, align 2, !tbaa !50
  %76 = load i8, ptr %10, align 1, !tbaa !51
  %77 = load ptr, ptr %5, align 8, !tbaa !8
  %78 = getelementptr inbounds nuw %struct.mi_page_s, ptr %77, i32 0, i32 10
  store i8 %76, ptr %78, align 1, !tbaa !52
  %79 = load ptr, ptr %11, align 8, !tbaa !12
  %80 = load ptr, ptr %5, align 8, !tbaa !8
  %81 = getelementptr inbounds nuw %struct.mi_page_s, ptr %80, i32 0, i32 12
  store ptr %79, ptr %81, align 8, !tbaa !53
  %82 = load ptr, ptr %4, align 8, !tbaa !3
  %83 = getelementptr inbounds nuw %struct.mi_segment_s, ptr %82, i32 0, i32 11
  %84 = load i64, ptr %83, align 8, !tbaa !41
  %85 = add i64 %84, -1
  store i64 %85, ptr %83, align 8, !tbaa !41
  %86 = load ptr, ptr %4, align 8, !tbaa !3
  %87 = load ptr, ptr %5, align 8, !tbaa !8
  %88 = load ptr, ptr %6, align 8, !tbaa !28
  call void @mi_segment_schedule_purge(ptr noundef %86, ptr noundef %87, ptr noundef %88) #8
  %89 = load ptr, ptr %5, align 8, !tbaa !8
  %90 = getelementptr inbounds nuw %struct.mi_page_s, ptr %89, i32 0, i32 2
  store i16 0, ptr %90, align 2, !tbaa !45
  %91 = load ptr, ptr %5, align 8, !tbaa !8
  %92 = getelementptr inbounds nuw %struct.mi_page_s, ptr %91, i32 0, i32 3
  store i16 0, ptr %92, align 4, !tbaa !55
  call void @llvm.lifetime.end.p0(i64 8, ptr %14) #7
  call void @llvm.lifetime.end.p0(i64 2, ptr %13) #7
  call void @llvm.lifetime.end.p0(i64 2, ptr %12) #7
  call void @llvm.lifetime.end.p0(i64 8, ptr %11) #7
  call void @llvm.lifetime.end.p0(i64 1, ptr %10) #7
  call void @llvm.lifetime.end.p0(i64 1, ptr %9) #7
  call void @llvm.lifetime.end.p0(i64 8, ptr %8) #7
  call void @llvm.lifetime.end.p0(i64 8, ptr %7) #7
  ret void
}