; Function Attrs: nounwind uwtable
define internal fastcc void @mi_segment_page_clear(ptr noundef %0, ptr noundef initializes((6, 26), (28, 32), (48, 80)) %1, ptr noundef captures(none) %2) unnamed_addr #2 {
  %4 = getelementptr inbounds nuw i8, ptr %1, i64 2
  %5 = load i16, ptr %4, align 2, !tbaa !48
  %6 = zext i16 %5 to i64
  %7 = getelementptr i8, ptr %1, i64 32
  %.val = load i64, ptr %7, align 8, !tbaa !23
  %8 = mul i64 %.val, %6
  %9 = getelementptr inbounds nuw i8, ptr %2, i64 104
  %10 = load ptr, ptr %9, align 8, !tbaa !49
  %11 = getelementptr inbounds nuw i8, ptr %10, i64 192
  tail call void @_mi_stat_decrease(ptr noundef nonnull %11, i64 noundef %8) #8
  %12 = load ptr, ptr %9, align 8, !tbaa !49
  %13 = getelementptr inbounds nuw i8, ptr %12, i64 32
  tail call void @_mi_stat_decrease(ptr noundef nonnull %13, i64 noundef 1) #8
  %14 = getelementptr inbounds nuw i8, ptr %1, i64 1
  %15 = load i8, ptr %14, align 1
  %16 = and i8 %15, -6
  store i8 %16, ptr %14, align 1
  %17 = load i64, ptr %7, align 8, !tbaa !23
  %18 = getelementptr inbounds nuw i8, ptr %1, i64 26
  %19 = load i8, ptr %18, align 2, !tbaa !50
  %20 = getelementptr inbounds nuw i8, ptr %1, i64 27
  %21 = load i8, ptr %20, align 1, !tbaa !51
  %22 = getelementptr inbounds nuw i8, ptr %1, i64 40
  %23 = load ptr, ptr %22, align 8, !tbaa !52
  %24 = load i16, ptr %4, align 2, !tbaa !48
  %25 = getelementptr inbounds nuw i8, ptr %1, i64 4
  %26 = load i16, ptr %25, align 4, !tbaa !53
  %27 = getelementptr inbounds nuw i8, ptr %1, i64 6
  tail call void @llvm.memset.p0.i64(ptr noundef nonnull align 1 dereferenceable(78) %27, i8 0, i64 74, i1 false)
  store i16 %24, ptr %4, align 2, !tbaa !48
  store i16 %26, ptr %25, align 4, !tbaa !53
  store i64 %17, ptr %7, align 8, !tbaa !23
  store i8 %19, ptr %18, align 2, !tbaa !50
  store i8 %21, ptr %20, align 1, !tbaa !51
  store ptr %23, ptr %22, align 8, !tbaa !52
  %28 = getelementptr inbounds nuw i8, ptr %0, i64 88
  %29 = load i64, ptr %28, align 8, !tbaa !41
  %30 = add i64 %29, -1
  store i64 %30, ptr %28, align 8, !tbaa !41
  %31 = getelementptr inbounds nuw i8, ptr %0, i64 25
  %32 = load i8, ptr %31, align 1, !tbaa !36, !range !37, !noundef !38
  %33 = trunc nuw i8 %32 to i1
  br i1 %33, label %34, label %mi_segment_schedule_purge.exit

34:                                               ; preds = %3
  %35 = tail call i64 @mi_option_get(i32 noundef 15) #8
  %36 = icmp eq i64 %35, 0
  br i1 %36, label %37, label %66

37:                                               ; preds = %34
  %38 = load i8, ptr %31, align 1, !tbaa !36, !range !37, !noundef !38
  %39 = trunc nuw i8 %38 to i1
  br i1 %39, label %40, label %mi_segment_schedule_purge.exit

40:                                               ; preds = %37
  %41 = getelementptr inbounds nuw i8, ptr %0, i64 152
  %42 = load i32, ptr %41, align 8, !tbaa !3
  %43 = icmp eq i32 %42, 3
  br i1 %43, label %44, label %47

44:                                               ; preds = %40
  %45 = getelementptr inbounds nuw i8, ptr %0, i64 32
  %46 = load i64, ptr %45, align 8, !tbaa !14
  br label %mi_segment_raw_page_size.exit.i.i.i

47:                                               ; preds = %40
  %48 = getelementptr inbounds nuw i8, ptr %0, i64 144
  %49 = load i64, ptr %48, align 8, !tbaa !15
  %50 = shl nuw i64 1, %49
  br label %mi_segment_raw_page_size.exit.i.i.i

mi_segment_raw_page_size.exit.i.i.i:              ; preds = %47, %44
  %51 = phi i64 [ %46, %44 ], [ %50, %47 ]
  %52 = load i8, ptr %1, align 8, !tbaa !16
  %53 = zext i8 %52 to i64
  %54 = mul i64 %51, %53
  %55 = getelementptr inbounds nuw i8, ptr %0, i64 %54
  %56 = icmp eq i8 %52, 0
  br i1 %56, label %57, label %mi_segment_raw_page_start.exit.i.i

57:                                               ; preds = %mi_segment_raw_page_size.exit.i.i.i
  %58 = getelementptr inbounds nuw i8, ptr %0, i64 104
  %59 = load i64, ptr %58, align 8, !tbaa !22
  %60 = getelementptr inbounds nuw i8, ptr %55, i64 %59
  %61 = sub i64 %51, %59
  br label %mi_segment_raw_page_start.exit.i.i

mi_segment_raw_page_start.exit.i.i:               ; preds = %57, %mi_segment_raw_page_size.exit.i.i.i
  %.012.i.i.i = phi i64 [ %61, %57 ], [ %51, %mi_segment_raw_page_size.exit.i.i.i ]
  %.0.i.i.i = phi ptr [ %60, %57 ], [ %55, %mi_segment_raw_page_size.exit.i.i.i ]
  %62 = tail call zeroext i1 @_mi_os_purge(ptr noundef %.0.i.i.i, i64 noundef %.012.i.i.i) #8
  br i1 %62, label %63, label %mi_segment_schedule_purge.exit

63:                                               ; preds = %mi_segment_raw_page_start.exit.i.i
  %64 = load i8, ptr %14, align 1
  %65 = and i8 %64, -3
  store i8 %65, ptr %14, align 1
  br label %mi_segment_schedule_purge.exit

66:                                               ; preds = %34
  %67 = tail call i64 @mi_option_get(i32 noundef 15) #8
  %68 = icmp sgt i64 %67, 0
  br i1 %68, label %69, label %mi_segment_schedule_purge.exit

69:                                               ; preds = %66
  %70 = getelementptr inbounds nuw i8, ptr %2, i64 32
  %71 = tail call i64 @_mi_clock_now() #8
  %72 = tail call i64 @mi_option_get(i32 noundef 15) #8
  %73 = add i64 %72, %71
  %74 = and i64 %73, 4294967295
  %75 = inttoptr i64 %74 to ptr
  %76 = getelementptr inbounds nuw i8, ptr %1, i64 8
  store ptr %75, ptr %76, align 8, !tbaa !27
  %77 = load ptr, ptr %70, align 8, !tbaa !35
  %78 = getelementptr inbounds nuw i8, ptr %1, i64 64
  store ptr %77, ptr %78, align 8, !tbaa !29
  %79 = getelementptr inbounds nuw i8, ptr %1, i64 72
  store ptr null, ptr %79, align 8, !tbaa !28
  %80 = icmp eq ptr %77, null
  br i1 %80, label %81, label %83

81:                                               ; preds = %69
  %82 = getelementptr inbounds nuw i8, ptr %2, i64 40
  store ptr %1, ptr %82, align 8, !tbaa !25
  br label %85

83:                                               ; preds = %69
  %84 = getelementptr inbounds nuw i8, ptr %77, i64 72
  store ptr %1, ptr %84, align 8, !tbaa !28
  br label %85

85:                                               ; preds = %83, %81
  store ptr %1, ptr %70, align 8, !tbaa !35
  br label %mi_segment_schedule_purge.exit

mi_segment_schedule_purge.exit:                   ; preds = %3, %37, %mi_segment_raw_page_start.exit.i.i, %63, %66, %85
  store i16 0, ptr %4, align 2, !tbaa !48
  store i16 0, ptr %25, align 4, !tbaa !53
  ret void
}